; Function Attrs: mustprogress nounwind uwtable
define void @_ZN3zmq13ws_listener_tD2Ev(ptr noundef nonnull align 8 dereferenceable(1632) %this) unnamed_addr #4 align 2 personality ptr @__gxx_personality_v0 {
entry:
  %_wss = getelementptr inbounds i8, ptr %this, i64 1616
  %0 = load i8, ptr %_wss, align 8
  %1 = and i8 %0, 1
  %tobool.not = icmp eq i8 %1, 0
  br i1 %tobool.not, label %if.end, label %if.then

if.then:                                          ; preds = %entry
  %_tls_cred = getelementptr inbounds i8, ptr %this, i64 1624
  %2 = load ptr, ptr %_tls_cred, align 8
  invoke void @gnutls_certificate_free_credentials(ptr noundef %2)
          to label %if.end unwind label %terminate.lpad

if.end:                                           ; preds = %if.then, %entry
  %_path.i = getelementptr inbounds i8, ptr %this, i64 1584
  tail call void @_ZNSt7__cxx1112basic_stringIcSt11char_traitsIcESaIcEED1Ev(ptr noundef nonnull align 8 dereferenceable(32) %_path.i) #14
  %_host.i = getelementptr inbounds i8, ptr %this, i64 1552
  tail call void @_ZNSt7__cxx1112basic_stringIcSt11char_traitsIcESaIcEED1Ev(ptr noundef nonnull align 8 dereferenceable(32) %_host.i) #14
  tail call void @_ZN3zmq22stream_listener_base_tD2Ev(ptr noundef nonnull align 8 dereferenceable(1520) %this) #14
  ret void

terminate.lpad:                                   ; preds = %if.then
  %3 = landingpad { ptr, i32 }
          catch ptr null
  %4 = extractvalue { ptr, i32 } %3, 0
  tail call void @__clang_call_terminate(ptr %4) #15
  unreachable
}